; Function Attrs: mustprogress nounwind uwtable
define hidden void @_ZN17C2_MacroAssembler8vabsnegfEi11XMMRegisterS0_i(ptr noundef nonnull align 8 dereferenceable(40) %0, i32 noundef %1, i32 %2, i32 %3, i32 noundef %4) local_unnamed_addr #0 align 2 {
  %6 = alloca %class.AddressLiteral, align 8
  %7 = alloca %class.ExternalAddress, align 8
  %8 = alloca %class.AddressLiteral, align 8
  %9 = alloca %class.ExternalAddress, align 8
  %10 = icmp eq i32 %1, 391
  br i1 %10, label %11, label %19

11:                                               ; preds = %5
  %12 = load ptr, ptr @_ZN12StubRoutines3x8623_vector_float_sign_maskE, align 8
  %.not.i.i = icmp eq ptr %12, null
  %13 = select i1 %.not.i.i, i32 0, i32 7
  call void @_ZN14AddressLiteralC2EPhN9relocInfo9relocTypeE(ptr noundef nonnull align 8 dereferenceable(56) %7, ptr noundef %12, i32 noundef %13) #11
  %14 = load ptr, ptr %7, align 8
  %15 = getelementptr inbounds i8, ptr %14, i64 16
  %16 = load ptr, ptr %15, align 8
  call void %16(ptr noundef nonnull align 8 dereferenceable(20) %7, ptr noundef nonnull align 8 dereferenceable(40) %6) #11
  %17 = getelementptr inbounds i8, ptr %6, i64 40
  %18 = getelementptr inbounds i8, ptr %7, i64 40
  call void @llvm.memcpy.p0.p0.i64(ptr noundef nonnull align 8 dereferenceable(16) %17, ptr noundef nonnull align 8 dereferenceable(16) %18, i64 16, i1 false)
  call void @_ZN14MacroAssembler6vandpsE11XMMRegisterS0_14AddressLiterali8Register(ptr noundef nonnull align 8 dereferenceable(40) %0, i32 %2, i32 %3, ptr noundef nonnull %6, i32 noundef %4, i32 -1) #11
  br label %27

19:                                               ; preds = %5
  %20 = load ptr, ptr @_ZN12StubRoutines3x8623_vector_float_sign_flipE, align 8
  %.not.i.i12 = icmp eq ptr %20, null
  %21 = select i1 %.not.i.i12, i32 0, i32 7
  call void @_ZN14AddressLiteralC2EPhN9relocInfo9relocTypeE(ptr noundef nonnull align 8 dereferenceable(56) %9, ptr noundef %20, i32 noundef %21) #11
  %22 = load ptr, ptr %9, align 8
  %23 = getelementptr inbounds i8, ptr %22, i64 16
  %24 = load ptr, ptr %23, align 8
  call void %24(ptr noundef nonnull align 8 dereferenceable(20) %9, ptr noundef nonnull align 8 dereferenceable(40) %8) #11
  %25 = getelementptr inbounds i8, ptr %8, i64 40
  %26 = getelementptr inbounds i8, ptr %9, i64 40
  call void @llvm.memcpy.p0.p0.i64(ptr noundef nonnull align 8 dereferenceable(16) %25, ptr noundef nonnull align 8 dereferenceable(16) %26, i64 16, i1 false)
  call void @_ZN14MacroAssembler6vxorpsE11XMMRegisterS0_14AddressLiterali8Register(ptr noundef nonnull align 8 dereferenceable(40) %0, i32 %2, i32 %3, ptr noundef nonnull %8, i32 noundef %4, i32 -1) #11
  br label %27

27:                                               ; preds = %19, %11
  ret void
}